; Function Attrs: mustprogress uwtable
define internal void @"_ZN9grpc_core5Party15ParticipantImplIZNS_16PromiseBasedCall16StartRecvMessageIZNS_22ClientPromiseBasedCall11CommitBatchEPK7grpc_opmRKNS2_10CompletionEE3$_0EEvRS6_SA_T_PNS_12PipeReceiverISt10unique_ptrINS_7MessageENS_5Arena13PooledDeleterEEEEbRNS0_11BulkSpawnerEEUlvE_ZNS3_ISB_EEvSC_SA_SD_SL_bSN_EUlNS_10NextResultISJ_EEE_E7DestroyEv"(ptr noundef nonnull align 8 dereferenceable(128) %this) unnamed_addr #3 align 2 {
entry:
  %0 = tail call align 8 ptr @llvm.threadlocal.address.p0(ptr align 8 @_ZN9grpc_core14promise_detail7ContextINS_5ArenaEE8current_E)
  %1 = load ptr, ptr %0, align 8
  %cmp.not.i = icmp eq ptr %1, null
  br i1 %cmp.not.i, label %if.then.i, label %_ZN9grpc_core10GetContextINS_5ArenaEEEPT_v.exit

if.then.i:                                        ; preds = %entry
  tail call void @gpr_assertion_failed(ptr noundef nonnull @.str.131, i32 noundef 80, ptr noundef nonnull @.str.132) #29
  unreachable

_ZN9grpc_core10GetContextINS_5ArenaEEEPT_v.exit:  ; preds = %entry
  tail call fastcc void @"_ZN9grpc_core5Arena12DeletePooledINS_5Party15ParticipantImplIZNS_16PromiseBasedCall16StartRecvMessageIZNS_22ClientPromiseBasedCall11CommitBatchEPK7grpc_opmRKNS4_10CompletionEE3$_0EEvRS8_SC_T_PNS_12PipeReceiverISt10unique_ptrINS_7MessageENS0_13PooledDeleterEEEEbRNS2_11BulkSpawnerEEUlvE_ZNS5_ISD_EEvSE_SC_SF_SM_bSO_EUlNS_10NextResultISK_EEE_EEEEvPSF_"(ptr noundef nonnull %this)
  ret void
}